; Function Attrs: mustprogress nounwind uwtable
define hidden void @_ZN6hermes3hbc7HBCISel17generateThrowInstEPNS_9ThrowInstEPNS_10BasicBlockE(ptr nocapture noundef nonnull readonly align 8 dereferenceable(392) %this, ptr noundef nonnull %Inst, ptr nocapture readnone %next) local_unnamed_addr #0 align 2 {
entry:
  %BCFGen_ = getelementptr inbounds i8, ptr %this, i64 8
  %0 = load ptr, ptr %BCFGen_, align 8
  %call.i = tail call noundef ptr @_ZNK6hermes11Instruction10getOperandEj(ptr noundef nonnull align 8 dereferenceable(132) %Inst, i32 noundef 0) #19
  %1 = load i8, ptr %call.i, align 8
  %2 = add i8 %1, -2
  %3 = icmp ult i8 %2, 107
  br i1 %3, label %if.then.i, label %if.else.i

if.then.i:                                        ; preds = %entry
  %RA_.i = getelementptr inbounds i8, ptr %this, i64 16
  %4 = load ptr, ptr %RA_.i, align 8
  %call2.i = tail call i32 @_ZN6hermes17RegisterAllocator11getRegisterEPNS_5ValueE(ptr noundef nonnull align 8 dereferenceable(1952) %4, ptr noundef nonnull %call.i) #19
  br label %_ZN6hermes3hbc7HBCISel11encodeValueEPNS_5ValueE.exit

if.else.i:                                        ; preds = %entry
  %cmp.i.i.i.i.i.i.i.i = icmp eq i8 %1, 124
  tail call void @llvm.assume(i1 %cmp.i.i.i.i.i.i.i.i)
  %call6.i = tail call noundef i32 @_ZNK6hermes8Variable22getIndexInVariableListEv(ptr noundef nonnull align 8 dereferenceable(65) %call.i) #19
  br label %_ZN6hermes3hbc7HBCISel11encodeValueEPNS_5ValueE.exit

_ZN6hermes3hbc7HBCISel11encodeValueEPNS_5ValueE.exit: ; preds = %if.then.i, %if.else.i
  %retval.0.i = phi i32 [ %call2.i, %if.then.i ], [ %call6.i, %if.else.i ]
  %conv = zext i32 %retval.0.i to i64
  %call3 = tail call noundef i32 @_ZN6hermes3hbc28BytecodeInstructionGenerator9emitThrowEl(ptr noundef nonnull align 8 dereferenceable(25) %0, i64 noundef %conv)
  ret void
}